target datalayout = "e-m:e-p270:32:32-p271:32:32-p272:64:64-i64:64-i128:128-f80:128-n8:16:32:64-S128"
target triple = "x86_64-pc-linux-gnu"

%struct._e_ctx_hnd = type { i32, %struct._e_guid_t }
%struct._e_guid_t = type { i32, i16, i16, [8 x i8] }
%struct._dcerpc_info = type { ptr, i32, i64, i8, i8, i8, i32, i32, i32, i32, i32, i32, i32, i32, ptr, ptr, ptr, ptr, %struct.anon }
%struct.anon = type { i8, ptr, ptr, ptr, i8 }

@dissect_ndr_ctx_hnd.ctx_hnd = internal global %struct._e_ctx_hnd zeroinitializer, align 4

; Function Attrs: null_pointer_is_valid sspstrong uwtable
define hidden i32 @dissect_ndr_ctx_hnd(ptr noundef %0, i32 noundef %1, ptr noundef %2, ptr noundef %3, ptr noundef %4, ptr noundef %5, i32 noundef %6, ptr noundef %7) #0 {
  %9 = alloca i32, align 4
  %10 = alloca ptr, align 8
  %11 = alloca i32, align 4
  %12 = alloca ptr, align 8
  %13 = alloca ptr, align 8
  %14 = alloca ptr, align 8
  %15 = alloca ptr, align 8
  %16 = alloca i32, align 4
  %17 = alloca ptr, align 8
  store ptr %0, ptr %10, align 8
  store i32 %1, ptr %11, align 4
  store ptr %2, ptr %12, align 8
  store ptr %3, ptr %13, align 8
  store ptr %4, ptr %14, align 8
  store ptr %5, ptr %15, align 8
  store i32 %6, ptr %16, align 4
  store ptr %7, ptr %17, align 8
  %18 = load ptr, ptr %14, align 8
  %19 = getelementptr inbounds nuw %struct._dcerpc_info, ptr %18, i32 0, i32 4
  %20 = load i8, ptr %19, align 1, !range !6, !noundef !7
  %21 = trunc i8 %20 to i1
  br i1 %21, label %22, label %24

22:                                               ; preds = %8
  %23 = load i32, ptr %11, align 4
  store i32 %23, ptr %9, align 4
  br label %64

24:                                               ; preds = %8
  %25 = load ptr, ptr %14, align 8
  %26 = getelementptr inbounds nuw %struct._dcerpc_info, ptr %25, i32 0, i32 5
  %27 = load i8, ptr %26, align 2, !range !6, !noundef !7
  %28 = trunc i8 %27 to i1
  br i1 %28, label %39, label %29

29:                                               ; preds = %24
  %30 = load i32, ptr %11, align 4
  %31 = srem i32 %30, 4
  %32 = icmp ne i32 %31, 0
  br i1 %32, label %33, label %39

33:                                               ; preds = %29
  %34 = load i32, ptr %11, align 4
  %35 = srem i32 %34, 4
  %36 = sub i32 4, %35
  %37 = load i32, ptr %11, align 4
  %38 = add i32 %37, %36
  store i32 %38, ptr %11, align 4
  br label %39

39:                                               ; preds = %33, %29, %24
  %40 = load ptr, ptr %10, align 8
  %41 = load i32, ptr %11, align 4
  %42 = load ptr, ptr %15, align 8
  %43 = call i32 @dcerpc_tvb_get_ntohl(ptr noundef %40, i32 noundef %41, ptr noundef %42)
  store i32 %43, ptr @dissect_ndr_ctx_hnd.ctx_hnd, align 4
  %44 = load ptr, ptr %10, align 8
  %45 = load i32, ptr %11, align 4
  %46 = add i32 %45, 4
  %47 = load ptr, ptr %15, align 8
  call void @dcerpc_tvb_get_uuid(ptr noundef %44, i32 noundef %46, ptr noundef %47, ptr noundef getelementptr inbounds nuw (%struct._e_ctx_hnd, ptr @dissect_ndr_ctx_hnd.ctx_hnd, i32 0, i32 1))
  %48 = load ptr, ptr %13, align 8
  %49 = icmp ne ptr %48, null
  br i1 %49, label %50, label %56

50:                                               ; preds = %39
  %51 = load ptr, ptr %13, align 8
  %52 = load i32, ptr %16, align 4
  %53 = load ptr, ptr %10, align 8
  %54 = load i32, ptr %11, align 4
  %55 = call ptr @proto_tree_add_item(ptr noundef %51, i32 noundef %52, ptr noundef %53, i32 noundef %54, i32 noundef 20, i32 noundef 0)
  br label %56

56:                                               ; preds = %50, %39
  %57 = load ptr, ptr %17, align 8
  %58 = icmp ne ptr %57, null
  br i1 %58, label %59, label %61

59:                                               ; preds = %56
  %60 = load ptr, ptr %17, align 8
  call void @llvm.memcpy.p0.p0.i64(ptr align 4 %60, ptr align 4 @dissect_ndr_ctx_hnd.ctx_hnd, i64 20, i1 false)
  br label %61

61:                                               ; preds = %59, %56
  %62 = load i32, ptr %11, align 4
  %63 = add i32 %62, 20
  store i32 %63, ptr %9, align 4
  br label %64

64:                                               ; preds = %61, %22
  %65 = load i32, ptr %9, align 4
  ret i32 %65
}