; Function Attrs: null_pointer_is_valid sspstrong uwtable
define hidden noundef i32 @dissect_ndr_ctx_hnd(ptr noundef %0, i32 noundef %1, ptr noundef readnone captures(none) %2, ptr noundef %3, ptr noundef readonly captures(none) %4, ptr noundef %5, i32 noundef %6, ptr noundef writeonly captures(address_is_null) %7) local_unnamed_addr #0 {
  %9 = getelementptr inbounds nuw i8, ptr %4, i64 25
  %10 = load i8, ptr %9, align 1, !range !6, !noundef !7
  %11 = trunc nuw i8 %10 to i1
  br i1 %11, label %29, label %12

12:                                               ; preds = %8
  %13 = getelementptr inbounds nuw i8, ptr %4, i64 26
  %14 = load i8, ptr %13, align 2, !range !6, !noundef !7
  %15 = trunc nuw i8 %14 to i1
  br i1 %15, label %20, label %16

16:                                               ; preds = %12
  %17 = srem i32 %1, 4
  %.not = icmp eq i32 %17, 0
  br i1 %.not, label %20, label %18

18:                                               ; preds = %16
  %reass.sub = add i32 %1, 4
  %19 = sub i32 %reass.sub, %17
  br label %20

20:                                               ; preds = %18, %16, %12
  %.020 = phi i32 [ %1, %12 ], [ %19, %18 ], [ %1, %16 ]
  %21 = tail call i32 @dcerpc_tvb_get_ntohl(ptr noundef %0, i32 noundef %.020, ptr noundef %5)
  store i32 %21, ptr @dissect_ndr_ctx_hnd.ctx_hnd, align 4
  %22 = add i32 %.020, 4
  tail call void @dcerpc_tvb_get_uuid(ptr noundef %0, i32 noundef %22, ptr noundef %5, ptr noundef nonnull getelementptr inbounds nuw (i8, ptr @dissect_ndr_ctx_hnd.ctx_hnd, i64 4))
  %.not24 = icmp eq ptr %3, null
  br i1 %.not24, label %25, label %23

23:                                               ; preds = %20
  %24 = tail call ptr @proto_tree_add_item(ptr noundef nonnull %3, i32 noundef %6, ptr noundef %0, i32 noundef %.020, i32 noundef 20, i32 noundef 0)
  br label %25

25:                                               ; preds = %23, %20
  %.not25 = icmp eq ptr %7, null
  br i1 %.not25, label %27, label %26

26:                                               ; preds = %25
  tail call void @llvm.memcpy.p0.p0.i64(ptr noundef nonnull align 4 dereferenceable(20) %7, ptr noundef nonnull align 4 dereferenceable(20) @dissect_ndr_ctx_hnd.ctx_hnd, i64 20, i1 false)
  br label %27

27:                                               ; preds = %26, %25
  %28 = add i32 %.020, 20
  br label %29

29:                                               ; preds = %8, %27
  %.0 = phi i32 [ %28, %27 ], [ %1, %8 ]
  ret i32 %.0
}